target datalayout = "e-m:e-p270:32:32-p271:32:32-p272:64:64-i64:64-i128:128-f80:128-n8:16:32:64-S128"
target triple = "x86_64-pc-linux-gnu"

%"class.ncnn::Mat" = type { ptr, ptr, i64, i32, ptr, i32, i32, i32, i32, i32, i64 }

; Function Attrs: alwaysinline mustprogress nounwind uwtable
define internal void @_ZN4ncnnL8fastFreeEPv(ptr noundef %0) #2 {
  %2 = alloca ptr, align 8
  store ptr %0, ptr %2, align 8, !tbaa !32
  %3 = load ptr, ptr %2, align 8, !tbaa !32
  %4 = icmp ne ptr %3, null
  br i1 %4, label %5, label %7

5:                                                ; preds = %1
  %6 = load ptr, ptr %2, align 8, !tbaa !32
  call void @free(ptr noundef %6) #9
  br label %7

7:                                                ; preds = %5, %1
  ret void
}

; Function Attrs: alwaysinline mustprogress nounwind uwtable
define internal noundef ptr @_ZN4ncnnL10fastMallocEm(i64 noundef %0) #2 {
  %2 = alloca i64, align 8
  %3 = alloca ptr, align 8
  store i64 %0, ptr %2, align 8, !tbaa !24
  call void @llvm.lifetime.start.p0(i64 8, ptr %3) #9
  store ptr null, ptr %3, align 8, !tbaa !32
  %4 = load i64, ptr %2, align 8, !tbaa !24
  %5 = add i64 %4, 64
  %6 = call i32 @posix_memalign(ptr noundef %3, i64 noundef 64, i64 noundef %5) #9
  %7 = icmp ne i32 %6, 0
  br i1 %7, label %8, label %9

8:                                                ; preds = %1
  store ptr null, ptr %3, align 8, !tbaa !32
  br label %9

9:                                                ; preds = %8, %1
  %10 = load ptr, ptr %3, align 8, !tbaa !32
  call void @llvm.lifetime.end.p0(i64 8, ptr %3) #9
  ret ptr %10
}

; Function Attrs: alwaysinline mustprogress nounwind uwtable
define internal noundef i64 @_ZN4ncnnL9alignSizeEmi(i64 noundef %0, i32 noundef %1) #2 {
  %3 = alloca i64, align 8
  %4 = alloca i32, align 4
  store i64 %0, ptr %3, align 8, !tbaa !24
  store i32 %1, ptr %4, align 4, !tbaa !25
  %5 = load i64, ptr %3, align 8, !tbaa !24
  %6 = load i32, ptr %4, align 4, !tbaa !25
  %7 = sext i32 %6 to i64
  %8 = add i64 %5, %7
  %9 = sub i64 %8, 1
  %10 = load i32, ptr %4, align 4, !tbaa !25
  %11 = sub nsw i32 0, %10
  %12 = sext i32 %11 to i64
  %13 = and i64 %9, %12
  ret i64 %13
}

; Function Attrs: alwaysinline mustprogress nounwind uwtable
define linkonce_odr hidden noundef i64 @_ZNK4ncnn3Mat5totalEv(ptr noundef nonnull align 8 dereferenceable(72) %0) #2 comdat align 2 {
  %2 = alloca ptr, align 8
  store ptr %0, ptr %2, align 8, !tbaa !4
  %3 = load ptr, ptr %2, align 8
  %4 = getelementptr inbounds nuw %"class.ncnn::Mat", ptr %3, i32 0, i32 10
  %5 = load i64, ptr %4, align 8, !tbaa !22
  %6 = getelementptr inbounds nuw %"class.ncnn::Mat", ptr %3, i32 0, i32 9
  %7 = load i32, ptr %6, align 8, !tbaa !20
  %8 = sext i32 %7 to i64
  %9 = mul i64 %5, %8
  ret i64 %9
}

; Function Attrs: alwaysinline mustprogress uwtable
define linkonce_odr hidden void @_ZN4ncnn3Mat7releaseEv(ptr noundef nonnull align 8 dereferenceable(72) %0) #1 comdat align 2 {
  %2 = alloca ptr, align 8
  %3 = alloca i32, align 4
  %4 = alloca i32, align 4
  store ptr %0, ptr %2, align 8, !tbaa !4
  %5 = load ptr, ptr %2, align 8
  %6 = getelementptr inbounds nuw %"class.ncnn::Mat", ptr %5, i32 0, i32 1
  %7 = load ptr, ptr %6, align 8, !tbaa !28
  %8 = icmp ne ptr %7, null
  br i1 %8, label %9, label %32

9:                                                ; preds = %1
  %10 = getelementptr inbounds nuw %"class.ncnn::Mat", ptr %5, i32 0, i32 1
  %11 = load ptr, ptr %10, align 8, !tbaa !28
  store i32 -1, ptr %3, align 4, !tbaa !25
  %12 = load i32, ptr %3, align 4
  %13 = atomicrmw add ptr %11, i32 %12 acq_rel, align 4
  store i32 %13, ptr %4, align 4
  %14 = load i32, ptr %4, align 4, !tbaa !25
  %15 = icmp eq i32 %14, 1
  br i1 %15, label %16, label %32

16:                                               ; preds = %9
  %17 = getelementptr inbounds nuw %"class.ncnn::Mat", ptr %5, i32 0, i32 4
  %18 = load ptr, ptr %17, align 8, !tbaa !29
  %19 = icmp ne ptr %18, null
  br i1 %19, label %20, label %28

20:                                               ; preds = %16
  %21 = getelementptr inbounds nuw %"class.ncnn::Mat", ptr %5, i32 0, i32 4
  %22 = load ptr, ptr %21, align 8, !tbaa !29
  %23 = getelementptr inbounds nuw %"class.ncnn::Mat", ptr %5, i32 0, i32 0
  %24 = load ptr, ptr %23, align 8, !tbaa !23
  %25 = load ptr, ptr %22, align 8, !tbaa !30
  %26 = getelementptr inbounds ptr, ptr %25, i64 3
  %27 = load ptr, ptr %26, align 8
  call void %27(ptr noundef nonnull align 8 dereferenceable(8) %22, ptr noundef %24)
  br label %31

28:                                               ; preds = %16
  %29 = getelementptr inbounds nuw %"class.ncnn::Mat", ptr %5, i32 0, i32 0
  %30 = load ptr, ptr %29, align 8, !tbaa !23
  call void @_ZN4ncnnL8fastFreeEPv(ptr noundef %30)
  br label %31

31:                                               ; preds = %28, %20
  br label %32

32:                                               ; preds = %31, %9, %1
  %33 = getelementptr inbounds nuw %"class.ncnn::Mat", ptr %5, i32 0, i32 0
  store ptr null, ptr %33, align 8, !tbaa !23
  %34 = getelementptr inbounds nuw %"class.ncnn::Mat", ptr %5, i32 0, i32 2
  store i64 0, ptr %34, align 8, !tbaa !17
  %35 = getelementptr inbounds nuw %"class.ncnn::Mat", ptr %5, i32 0, i32 3
  store i32 0, ptr %35, align 8, !tbaa !18
  %36 = getelementptr inbounds nuw %"class.ncnn::Mat", ptr %5, i32 0, i32 5
  store i32 0, ptr %36, align 8, !tbaa !11
  %37 = getelementptr inbounds nuw %"class.ncnn::Mat", ptr %5, i32 0, i32 6
  store i32 0, ptr %37, align 4, !tbaa !16
  %38 = getelementptr inbounds nuw %"class.ncnn::Mat", ptr %5, i32 0, i32 7
  store i32 0, ptr %38, align 8, !tbaa !19
  %39 = getelementptr inbounds nuw %"class.ncnn::Mat", ptr %5, i32 0, i32 8
  store i32 0, ptr %39, align 4, !tbaa !21
  %40 = getelementptr inbounds nuw %"class.ncnn::Mat", ptr %5, i32 0, i32 9
  store i32 0, ptr %40, align 8, !tbaa !20
  %41 = getelementptr inbounds nuw %"class.ncnn::Mat", ptr %5, i32 0, i32 10
  store i64 0, ptr %41, align 8, !tbaa !22
  %42 = getelementptr inbounds nuw %"class.ncnn::Mat", ptr %5, i32 0, i32 1
  store ptr null, ptr %42, align 8, !tbaa !28
  ret void
}

; Function Attrs: mustprogress uwtable
define hidden void @_ZN4ncnn3Mat6createEimiPNS_9AllocatorE(ptr noundef nonnull align 8 dereferenceable(72) %0, i32 noundef %1, i64 noundef %2, i32 noundef %3, ptr noundef %4) #0 align 2 {
  %6 = alloca ptr, align 8
  %7 = alloca i32, align 4
  %8 = alloca i64, align 8
  %9 = alloca i32, align 4
  %10 = alloca ptr, align 8
  %11 = alloca i64, align 8
  store ptr %0, ptr %6, align 8, !tbaa !4
  store i32 %1, ptr %7, align 4, !tbaa !25
  store i64 %2, ptr %8, align 8, !tbaa !24
  store i32 %3, ptr %9, align 4, !tbaa !25
  store ptr %4, ptr %10, align 8, !tbaa !9
  %12 = load ptr, ptr %6, align 8
  %13 = getelementptr inbounds nuw %"class.ncnn::Mat", ptr %12, i32 0, i32 5
  %14 = load i32, ptr %13, align 8, !tbaa !11
  %15 = icmp eq i32 %14, 1
  br i1 %15, label %16, label %37

16:                                               ; preds = %5
  %17 = getelementptr inbounds nuw %"class.ncnn::Mat", ptr %12, i32 0, i32 6
  %18 = load i32, ptr %17, align 4, !tbaa !16
  %19 = load i32, ptr %7, align 4, !tbaa !25
  %20 = icmp eq i32 %18, %19
  br i1 %20, label %21, label %37

21:                                               ; preds = %16
  %22 = getelementptr inbounds nuw %"class.ncnn::Mat", ptr %12, i32 0, i32 2
  %23 = load i64, ptr %22, align 8, !tbaa !17
  %24 = load i64, ptr %8, align 8, !tbaa !24
  %25 = icmp eq i64 %23, %24
  br i1 %25, label %26, label %37

26:                                               ; preds = %21
  %27 = getelementptr inbounds nuw %"class.ncnn::Mat", ptr %12, i32 0, i32 3
  %28 = load i32, ptr %27, align 8, !tbaa !18
  %29 = load i32, ptr %9, align 4, !tbaa !25
  %30 = icmp eq i32 %28, %29
  br i1 %30, label %31, label %37

31:                                               ; preds = %26
  %32 = getelementptr inbounds nuw %"class.ncnn::Mat", ptr %12, i32 0, i32 4
  %33 = load ptr, ptr %32, align 8, !tbaa !29
  %34 = load ptr, ptr %10, align 8, !tbaa !9
  %35 = icmp eq ptr %33, %34
  br i1 %35, label %36, label %37

36:                                               ; preds = %31
  br label %94

37:                                               ; preds = %31, %26, %21, %16, %5
  call void @_ZN4ncnn3Mat7releaseEv(ptr noundef nonnull align 8 dereferenceable(72) %12)
  %38 = load i64, ptr %8, align 8, !tbaa !24
  %39 = getelementptr inbounds nuw %"class.ncnn::Mat", ptr %12, i32 0, i32 2
  store i64 %38, ptr %39, align 8, !tbaa !17
  %40 = load i32, ptr %9, align 4, !tbaa !25
  %41 = getelementptr inbounds nuw %"class.ncnn::Mat", ptr %12, i32 0, i32 3
  store i32 %40, ptr %41, align 8, !tbaa !18
  %42 = load ptr, ptr %10, align 8, !tbaa !9
  %43 = getelementptr inbounds nuw %"class.ncnn::Mat", ptr %12, i32 0, i32 4
  store ptr %42, ptr %43, align 8, !tbaa !29
  %44 = getelementptr inbounds nuw %"class.ncnn::Mat", ptr %12, i32 0, i32 5
  store i32 1, ptr %44, align 8, !tbaa !11
  %45 = load i32, ptr %7, align 4, !tbaa !25
  %46 = getelementptr inbounds nuw %"class.ncnn::Mat", ptr %12, i32 0, i32 6
  store i32 %45, ptr %46, align 4, !tbaa !16
  %47 = getelementptr inbounds nuw %"class.ncnn::Mat", ptr %12, i32 0, i32 7
  store i32 1, ptr %47, align 8, !tbaa !19
  %48 = getelementptr inbounds nuw %"class.ncnn::Mat", ptr %12, i32 0, i32 8
  store i32 1, ptr %48, align 4, !tbaa !21
  %49 = getelementptr inbounds nuw %"class.ncnn::Mat", ptr %12, i32 0, i32 9
  store i32 1, ptr %49, align 8, !tbaa !20
  %50 = getelementptr inbounds nuw %"class.ncnn::Mat", ptr %12, i32 0, i32 6
  %51 = load i32, ptr %50, align 4, !tbaa !16
  %52 = sext i32 %51 to i64
  %53 = getelementptr inbounds nuw %"class.ncnn::Mat", ptr %12, i32 0, i32 10
  store i64 %52, ptr %53, align 8, !tbaa !22
  call void @llvm.lifetime.start.p0(i64 8, ptr %11) #9
  %54 = call noundef i64 @_ZNK4ncnn3Mat5totalEv(ptr noundef nonnull align 8 dereferenceable(72) %12)
  %55 = getelementptr inbounds nuw %"class.ncnn::Mat", ptr %12, i32 0, i32 2
  %56 = load i64, ptr %55, align 8, !tbaa !17
  %57 = mul i64 %54, %56
  %58 = call noundef i64 @_ZN4ncnnL9alignSizeEmi(i64 noundef %57, i32 noundef 4)
  store i64 %58, ptr %11, align 8, !tbaa !24
  %59 = load i64, ptr %11, align 8, !tbaa !24
  %60 = icmp ugt i64 %59, 0
  br i1 %60, label %61, label %81

61:                                               ; preds = %37
  %62 = getelementptr inbounds nuw %"class.ncnn::Mat", ptr %12, i32 0, i32 4
  %63 = load ptr, ptr %62, align 8, !tbaa !29
  %64 = icmp ne ptr %63, null
  br i1 %64, label %65, label %75

65:                                               ; preds = %61
  %66 = getelementptr inbounds nuw %"class.ncnn::Mat", ptr %12, i32 0, i32 4
  %67 = load ptr, ptr %66, align 8, !tbaa !29
  %68 = load i64, ptr %11, align 8, !tbaa !24
  %69 = add i64 %68, 4
  %70 = load ptr, ptr %67, align 8, !tbaa !30
  %71 = getelementptr inbounds ptr, ptr %70, i64 2
  %72 = load ptr, ptr %71, align 8
  %73 = call noundef ptr %72(ptr noundef nonnull align 8 dereferenceable(8) %67, i64 noundef %69)
  %74 = getelementptr inbounds nuw %"class.ncnn::Mat", ptr %12, i32 0, i32 0
  store ptr %73, ptr %74, align 8, !tbaa !23
  br label %80

75:                                               ; preds = %61
  %76 = load i64, ptr %11, align 8, !tbaa !24
  %77 = add i64 %76, 4
  %78 = call noundef ptr @_ZN4ncnnL10fastMallocEm(i64 noundef %77)
  %79 = getelementptr inbounds nuw %"class.ncnn::Mat", ptr %12, i32 0, i32 0
  store ptr %78, ptr %79, align 8, !tbaa !23
  br label %80

80:                                               ; preds = %75, %65
  br label %81

81:                                               ; preds = %80, %37
  %82 = getelementptr inbounds nuw %"class.ncnn::Mat", ptr %12, i32 0, i32 0
  %83 = load ptr, ptr %82, align 8, !tbaa !23
  %84 = icmp ne ptr %83, null
  br i1 %84, label %85, label %93

85:                                               ; preds = %81
  %86 = getelementptr inbounds nuw %"class.ncnn::Mat", ptr %12, i32 0, i32 0
  %87 = load ptr, ptr %86, align 8, !tbaa !23
  %88 = load i64, ptr %11, align 8, !tbaa !24
  %89 = getelementptr inbounds nuw i8, ptr %87, i64 %88
  %90 = getelementptr inbounds nuw %"class.ncnn::Mat", ptr %12, i32 0, i32 1
  store ptr %89, ptr %90, align 8, !tbaa !28
  %91 = getelementptr inbounds nuw %"class.ncnn::Mat", ptr %12, i32 0, i32 1
  %92 = load ptr, ptr %91, align 8, !tbaa !28
  store i32 1, ptr %92, align 4, !tbaa !25
  br label %93

93:                                               ; preds = %85, %81
  call void @llvm.lifetime.end.p0(i64 8, ptr %11) #9
  br label %94

94:                                               ; preds = %93, %36
  ret void
}