; Function Attrs: mustprogress uwtable
define hidden void @_ZN4ncnn3Mat6createEimiPNS_9AllocatorE(ptr noundef nonnull align 8 captures(none) dereferenceable(72) %0, i32 noundef %1, i64 noundef %2, i32 noundef %3, ptr noundef %4) local_unnamed_addr #0 align 2 {
  %6 = alloca ptr, align 8
  %7 = getelementptr inbounds nuw i8, ptr %0, i64 40
  %8 = load i32, ptr %7, align 8, !tbaa !15
  %9 = icmp eq i32 %8, 1
  %10 = getelementptr inbounds nuw i8, ptr %0, i64 44
  %11 = load i32, ptr %10, align 4
  %12 = icmp eq i32 %11, %1
  %or.cond = select i1 %9, i1 %12, i1 false
  %13 = getelementptr inbounds nuw i8, ptr %0, i64 16
  %14 = load i64, ptr %13, align 8
  %15 = icmp eq i64 %14, %2
  %or.cond20 = select i1 %or.cond, i1 %15, i1 false
  %16 = getelementptr inbounds nuw i8, ptr %0, i64 24
  %17 = load i32, ptr %16, align 8
  %18 = icmp eq i32 %17, %3
  %or.cond23 = select i1 %or.cond20, i1 %18, i1 false
  %19 = getelementptr inbounds nuw i8, ptr %0, i64 32
  %20 = load ptr, ptr %19, align 8
  %21 = icmp eq ptr %20, %4
  %or.cond26 = select i1 %or.cond23, i1 %21, i1 false
  br i1 %or.cond26, label %thread-pre-split.thread, label %22

22:                                               ; preds = %5
  %23 = getelementptr inbounds nuw i8, ptr %0, i64 8
  %24 = load ptr, ptr %23, align 8, !tbaa !19
  %.not.i = icmp eq ptr %24, null
  br i1 %.not.i, label %_ZN4ncnn3Mat7releaseEv.exit, label %25

25:                                               ; preds = %22
  %26 = atomicrmw add ptr %24, i32 -1 acq_rel, align 4
  %27 = icmp eq i32 %26, 1
  br i1 %27, label %28, label %_ZN4ncnn3Mat7releaseEv.exit

28:                                               ; preds = %25
  %29 = load ptr, ptr %19, align 8, !tbaa !30
  %.not3.i = icmp eq ptr %29, null
  %30 = load ptr, ptr %0, align 8, !tbaa !4
  br i1 %.not3.i, label %35, label %31

31:                                               ; preds = %28
  %32 = load ptr, ptr %29, align 8, !tbaa !31
  %33 = getelementptr inbounds nuw i8, ptr %32, i64 24
  %34 = load ptr, ptr %33, align 8
  tail call void %34(ptr noundef nonnull align 8 dereferenceable(8) %29, ptr noundef %30)
  br label %_ZN4ncnn3Mat7releaseEv.exit

35:                                               ; preds = %28
  %.not.i27 = icmp eq ptr %30, null
  br i1 %.not.i27, label %_ZN4ncnn3Mat7releaseEv.exit, label %36

36:                                               ; preds = %35
  tail call void @free(ptr noundef nonnull %30) #12
  br label %_ZN4ncnn3Mat7releaseEv.exit

_ZN4ncnn3Mat7releaseEv.exit:                      ; preds = %36, %35, %22, %25, %31
  %37 = getelementptr inbounds nuw i8, ptr %0, i64 48
  %38 = getelementptr inbounds nuw i8, ptr %0, i64 52
  %39 = getelementptr inbounds nuw i8, ptr %0, i64 56
  %40 = getelementptr inbounds nuw i8, ptr %0, i64 64
  tail call void @llvm.memset.p0.i64(ptr noundef nonnull align 8 dereferenceable(16) %0, i8 0, i64 16, i1 false)
  store i64 %2, ptr %13, align 8, !tbaa !17
  store i32 %3, ptr %16, align 8, !tbaa !18
  store ptr %4, ptr %19, align 8, !tbaa !30
  store i32 1, ptr %7, align 8, !tbaa !15
  store i32 %1, ptr %10, align 4, !tbaa !16
  store i32 1, ptr %37, align 8, !tbaa !20
  store i32 1, ptr %38, align 4, !tbaa !21
  store i32 1, ptr %39, align 8, !tbaa !14
  %41 = sext i32 %1 to i64
  store i64 %41, ptr %40, align 8, !tbaa !13
  %42 = mul i64 %2, %41
  %43 = add i64 %42, 3
  %44 = and i64 %43, -4
  %.not = icmp eq i64 %44, 0
  br i1 %.not, label %thread-pre-split.thread, label %45

45:                                               ; preds = %_ZN4ncnn3Mat7releaseEv.exit
  %.not14 = icmp eq ptr %4, null
  br i1 %.not14, label %_ZN4ncnnL10fastMallocEm.exit, label %46

46:                                               ; preds = %45
  %47 = add i64 %44, 4
  %48 = load ptr, ptr %4, align 8, !tbaa !31
  %49 = getelementptr inbounds nuw i8, ptr %48, i64 16
  %50 = load ptr, ptr %49, align 8
  %51 = tail call noundef ptr %50(ptr noundef nonnull align 8 dereferenceable(8) %4, i64 noundef %47)
  br label %thread-pre-split

_ZN4ncnnL10fastMallocEm.exit:                     ; preds = %45
  call void @llvm.lifetime.start.p0(i64 8, ptr nonnull %6) #12
  store ptr null, ptr %6, align 8, !tbaa !33
  %52 = add i64 %44, 68
  %53 = call i32 @posix_memalign(ptr noundef nonnull %6, i64 noundef 64, i64 noundef %52) #12
  %.not.i28 = icmp eq i32 %53, 0
  %.pre = load ptr, ptr %6, align 8
  %54 = select i1 %.not.i28, ptr %.pre, ptr null
  call void @llvm.lifetime.end.p0(i64 8, ptr nonnull %6) #12
  br label %thread-pre-split

thread-pre-split:                                 ; preds = %46, %_ZN4ncnnL10fastMallocEm.exit
  %.sink = phi ptr [ %51, %46 ], [ %54, %_ZN4ncnnL10fastMallocEm.exit ]
  store ptr %.sink, ptr %0, align 8, !tbaa !4
  %.not15 = icmp eq ptr %.sink, null
  br i1 %.not15, label %thread-pre-split.thread, label %55

55:                                               ; preds = %thread-pre-split
  %56 = getelementptr inbounds nuw i8, ptr %.sink, i64 %44
  store ptr %56, ptr %23, align 8, !tbaa !19
  store i32 1, ptr %56, align 4, !tbaa !34
  br label %thread-pre-split.thread

thread-pre-split.thread:                          ; preds = %_ZN4ncnn3Mat7releaseEv.exit, %thread-pre-split, %55, %5
  ret void
}